; Function Attrs: mustprogress nounwind uwtable
define dso_local noalias ptr @LLVMNormalizeTargetTriple(ptr noundef %0) local_unnamed_addr #0 {
  %2 = alloca %"class.std::__cxx11::basic_string", align 8
  %.not.i = icmp eq ptr %0, null
  br i1 %.not.i, label %_ZN4llvm9StringRefC2EPKc.exit, label %3

3:                                                ; preds = %1
  %4 = tail call noundef i64 @strlen(ptr noundef nonnull dereferenceable(1) %0) #15
  br label %_ZN4llvm9StringRefC2EPKc.exit

_ZN4llvm9StringRefC2EPKc.exit:                    ; preds = %1, %3
  %5 = phi i64 [ %4, %3 ], [ 0, %1 ]
  call void @_ZN4llvm6Triple9normalizeB5cxx11ENS_9StringRefE(ptr dead_on_unwind nonnull writable sret(%"class.std::__cxx11::basic_string") align 8 %2, ptr %0, i64 %5) #15
  %6 = call noundef ptr @_ZNKSt7__cxx1112basic_stringIcSt11char_traitsIcESaIcEE5c_strEv(ptr noundef nonnull align 8 dereferenceable(32) %2) #15
  %7 = call noalias ptr @strdup(ptr noundef %6) #15
  call void @_ZNSt7__cxx1112basic_stringIcSt11char_traitsIcESaIcEED1Ev(ptr noundef nonnull align 8 dereferenceable(32) %2) #15
  ret ptr %7
}